; Function Attrs: mustprogress uwtable
define hidden void @_ZN3sls7context10on_restartEv(ptr noundef nonnull readonly align 8 captures(none) dereferenceable(321) %0) local_unnamed_addr #4 align 2 {
  %2 = getelementptr inbounds nuw i8, ptr %0, i64 16
  %3 = load ptr, ptr %2, align 8, !tbaa !49
  %4 = icmp eq ptr %3, null
  br i1 %4, label %._crit_edge, label %_ZNK17scoped_ptr_vectorIN3sls6pluginEE3endEv.exit

_ZNK17scoped_ptr_vectorIN3sls6pluginEE3endEv.exit: ; preds = %1
  %5 = getelementptr inbounds i8, ptr %3, i64 -4
  %6 = load i32, ptr %5, align 4, !tbaa !58
  %7 = zext i32 %6 to i64
  %8 = getelementptr inbounds nuw ptr, ptr %3, i64 %7
  %.not11 = icmp eq i32 %6, 0
  br i1 %.not11, label %._crit_edge, label %.lr.ph

._crit_edge:                                      ; preds = %14, %1, %_ZNK17scoped_ptr_vectorIN3sls6pluginEE3endEv.exit
  ret void

.lr.ph:                                           ; preds = %_ZNK17scoped_ptr_vectorIN3sls6pluginEE3endEv.exit, %14
  %.012 = phi ptr [ %15, %14 ], [ %3, %_ZNK17scoped_ptr_vectorIN3sls6pluginEE3endEv.exit ]
  %9 = load ptr, ptr %.012, align 8, !tbaa !70
  %.not10 = icmp eq ptr %9, null
  br i1 %.not10, label %14, label %10

10:                                               ; preds = %.lr.ph
  %11 = load ptr, ptr %9, align 8, !tbaa !3
  %12 = getelementptr inbounds nuw i8, ptr %11, i64 120
  %13 = load ptr, ptr %12, align 8
  tail call void %13(ptr noundef nonnull align 8 dereferenceable(28) %9)
  br label %14

14:                                               ; preds = %10, %.lr.ph
  %15 = getelementptr inbounds nuw i8, ptr %.012, i64 8
  %.not = icmp eq ptr %15, %8
  br i1 %.not, label %._crit_edge, label %.lr.ph
}